; Function Attrs: nounwind uwtable
define void @av_refstruct_replace(ptr noundef captures(none) %0, ptr noundef %1) local_unnamed_addr #0 {
  %.0.copyload = load ptr, ptr %0, align 1
  %3 = icmp eq ptr %1, %.0.copyload
  br i1 %3, label %21, label %4

4:                                                ; preds = %2
  %.not.i = icmp eq ptr %.0.copyload, null
  br i1 %.not.i, label %av_refstruct_unref.exit, label %5

5:                                                ; preds = %4
  store ptr null, ptr %0, align 1
  %6 = getelementptr inbounds i8, ptr %.0.copyload, i64 -32
  %7 = atomicrmw sub ptr %6, i64 1 acq_rel, align 8
  %8 = icmp eq i64 %7, 1
  br i1 %8, label %9, label %av_refstruct_unref.exit

9:                                                ; preds = %5
  %10 = getelementptr inbounds i8, ptr %.0.copyload, i64 -16
  %11 = load ptr, ptr %10, align 8, !tbaa !7
  %.not13.i = icmp eq ptr %11, null
  br i1 %.not13.i, label %15, label %12

12:                                               ; preds = %9
  %13 = getelementptr inbounds i8, ptr %.0.copyload, i64 -24
  %14 = load ptr, ptr %13, align 8
  tail call void %11(ptr %14, ptr noundef nonnull %.0.copyload) #5
  br label %15

15:                                               ; preds = %12, %9
  %16 = getelementptr inbounds i8, ptr %.0.copyload, i64 -8
  %17 = load ptr, ptr %16, align 8, !tbaa !10
  tail call void %17(ptr noundef nonnull %6) #5
  br label %av_refstruct_unref.exit

av_refstruct_unref.exit:                          ; preds = %4, %5, %15
  %.not = icmp eq ptr %1, null
  br i1 %.not, label %21, label %18

18:                                               ; preds = %av_refstruct_unref.exit
  %19 = getelementptr inbounds i8, ptr %1, i64 -32
  %20 = atomicrmw add ptr %19, i64 1 monotonic, align 8
  store ptr %1, ptr %0, align 1
  br label %21

21:                                               ; preds = %av_refstruct_unref.exit, %18, %2
  ret void
}